target datalayout = "e-m:e-p270:32:32-p271:32:32-p272:64:64-i64:64-i128:128-f80:128-n8:16:32:64-S128"
target triple = "x86_64-pc-linux-gnu"

%struct.pmix_class_t = type { ptr, ptr, ptr, ptr, i32, i32, ptr, ptr, i64 }
%struct.pmix_list_t = type { %struct.pmix_object_t, %struct.pmix_list_item_t, i64 }
%struct.pmix_object_t = type { %union.pthread_mutex_t, ptr, i32, %struct.pmix_tma }
%union.pthread_mutex_t = type { %struct.__pthread_mutex_s }
%struct.__pthread_mutex_s = type { i32, i32, i32, i32, i32, i16, i16, %struct.__pthread_internal_list }
%struct.__pthread_internal_list = type { ptr, ptr }
%struct.pmix_tma = type { ptr, ptr, ptr, ptr, ptr, ptr, ptr, ptr }
%struct.pmix_list_item_t = type { %struct.pmix_object_t, ptr, ptr, i32 }
%struct.timeval = type { i64, i64 }
%struct.pmix_globals_t = type { i32, %struct.pmix_proc, %struct.pmix_value, %struct.pmix_value, ptr, i32, i32, ptr, i32, i32, i32, i32, i32, ptr, ptr, i32, %struct.pmix_events_t, i8, i8, %struct.timeval, %struct.pmix_list_t, %struct.pmix_pointer_array_t, i32, i32, %struct.pmix_hotel_t, i8, %struct.pmix_list_t, i8, i8, i8, i64, %struct.pmix_list_t, %struct.pmix_topology_t, %struct.pmix_cpuset_t, i8, i8, %struct.pmix_iof_flags_t, %struct.pmix_keyindex_t }
%struct.pmix_proc = type { [256 x i8], i32 }
%struct.pmix_value = type { i16, %union.anon.7 }
%union.anon.7 = type { %struct.pmix_envar_t }
%struct.pmix_envar_t = type { ptr, ptr, i8 }
%struct.pmix_events_t = type { %struct.pmix_object_t, i64, ptr, ptr, %struct.pmix_list_t, %struct.pmix_list_t, %struct.pmix_list_t, %struct.pmix_list_t }
%struct.pmix_pointer_array_t = type { %struct.pmix_object_t, i32, i32, i32, i32, i32, ptr, ptr }
%struct.pmix_hotel_t = type { %struct.pmix_object_t, i32, ptr, %struct.timeval, ptr, ptr, ptr, ptr, i32 }
%struct.pmix_topology_t = type { ptr, ptr }
%struct.pmix_cpuset_t = type { ptr, ptr }
%struct.pmix_iof_flags_t = type { i8, i8, i8, i8, i8, i8, i8, ptr, ptr, i8, i8, i8, i8, i8, i8 }
%struct.pmix_keyindex_t = type { %struct.pmix_object_t, ptr, i32 }
%struct.pmix_progress_tracker_t = type { %struct.pmix_list_item_t, i32, ptr, ptr, i8, %struct.event, i8, %struct.pmix_thread_t }
%struct.event = type { %struct.event_callback, %union.anon.0, i32, ptr, %union.anon.2, i16, i16, %struct.timeval }
%struct.event_callback = type { %struct.anon, i16, i8, i8, %union.anon, ptr }
%struct.anon = type { ptr, ptr }
%union.anon = type { ptr }
%union.anon.0 = type { %struct.anon.1 }
%struct.anon.1 = type { ptr, ptr }
%union.anon.2 = type { %struct.anon.3 }
%struct.anon.3 = type { %struct.anon.4, %struct.timeval }
%struct.anon.4 = type { ptr, ptr }
%struct.pmix_thread_t = type { %struct.pmix_object_t, ptr, ptr, i64 }

@inited = internal global i8 0, align 1
@tracking = internal global %struct.pmix_list_t zeroinitializer, align 8
@shared_thread_name = internal global ptr @.str.2, align 8
@.str = private unnamed_addr constant [37 x i8] c"PMIX ERROR: %s in file %s at line %d\00", align 1
@.str.1 = private unnamed_addr constant [32 x i8] c"runtime/pmix_progress_threads.c\00", align 1
@pmix_globals = external global %struct.pmix_globals_t, align 8
@.str.4 = private unnamed_addr constant [21 x i8] c"pthread_mutex_lock()\00", align 1

; Function Attrs: inlinehint nounwind uwtable
define internal void @pmix_tma_free(ptr noundef %0, ptr noundef %1) #3 {
  %3 = alloca ptr, align 8
  %4 = alloca ptr, align 8
  store ptr %0, ptr %3, align 8, !tbaa !47
  store ptr %1, ptr %4, align 8, !tbaa !3
  %5 = load ptr, ptr %3, align 8, !tbaa !47
  %6 = icmp ne ptr null, %5
  br i1 %6, label %7, label %13

7:                                                ; preds = %2
  %8 = load ptr, ptr %3, align 8, !tbaa !47
  %9 = getelementptr inbounds nuw %struct.pmix_tma, ptr %8, i32 0, i32 5
  %10 = load ptr, ptr %9, align 8, !tbaa !63
  %11 = load ptr, ptr %3, align 8, !tbaa !47
  %12 = load ptr, ptr %4, align 8, !tbaa !3
  call void %10(ptr noundef %11, ptr noundef %12)
  br label %15

13:                                               ; preds = %2
  %14 = load ptr, ptr %4, align 8, !tbaa !3
  call void @free(ptr noundef %14) #12
  br label %15

15:                                               ; preds = %13, %7
  ret void
}

; Function Attrs: inlinehint nounwind uwtable
define internal void @pmix_obj_run_destructors(ptr noundef %0) #3 {
  %2 = alloca ptr, align 8
  %3 = alloca ptr, align 8
  store ptr %0, ptr %2, align 8, !tbaa !43
  call void @llvm.lifetime.start.p0(i64 8, ptr %3) #12
  %4 = load ptr, ptr %2, align 8, !tbaa !43
  %5 = getelementptr inbounds nuw %struct.pmix_object_t, ptr %4, i32 0, i32 1
  %6 = load ptr, ptr %5, align 8, !tbaa !34
  %7 = getelementptr inbounds nuw %struct.pmix_class_t, ptr %6, i32 0, i32 7
  %8 = load ptr, ptr %7, align 8, !tbaa !61
  store ptr %8, ptr %3, align 8, !tbaa !3
  br label %9

9:                                                ; preds = %13, %1
  %10 = load ptr, ptr %3, align 8, !tbaa !3
  %11 = load ptr, ptr %10, align 8, !tbaa !3
  %12 = icmp ne ptr null, %11
  br i1 %12, label %13, label %19

13:                                               ; preds = %9
  %14 = load ptr, ptr %3, align 8, !tbaa !3
  %15 = load ptr, ptr %14, align 8, !tbaa !3
  %16 = load ptr, ptr %2, align 8, !tbaa !43
  call void %15(ptr noundef %16)
  %17 = load ptr, ptr %3, align 8, !tbaa !3
  %18 = getelementptr inbounds nuw ptr, ptr %17, i32 1
  store ptr %18, ptr %3, align 8, !tbaa !3
  br label %9, !llvm.loop !62

19:                                               ; preds = %9
  call void @llvm.lifetime.end.p0(i64 8, ptr %3) #12
  ret void
}

; Function Attrs: alwaysinline nounwind uwtable
define internal i32 @pmix_obj_update(ptr noundef %0, i32 noundef %1) #6 {
  %3 = alloca ptr, align 8
  %4 = alloca i32, align 4
  %5 = alloca i32, align 4
  store ptr %0, ptr %3, align 8, !tbaa !43
  store i32 %1, ptr %4, align 4, !tbaa !31
  call void @llvm.lifetime.start.p0(i64 4, ptr %5) #12
  %6 = load ptr, ptr %3, align 8, !tbaa !43
  %7 = getelementptr inbounds nuw %struct.pmix_object_t, ptr %6, i32 0, i32 0
  %8 = call i32 @pthread_mutex_lock(ptr noundef %7) #12
  store i32 %8, ptr %5, align 4, !tbaa !31
  %9 = load i32, ptr %5, align 4, !tbaa !31
  %10 = icmp eq i32 %9, 35
  br i1 %10, label %11, label %14

11:                                               ; preds = %2
  %12 = load i32, ptr %5, align 4, !tbaa !31
  %13 = call ptr @__errno_location() #14
  store i32 %12, ptr %13, align 4, !tbaa !31
  call void @perror(ptr noundef @.str.4)
  call void @abort() #15
  unreachable

14:                                               ; preds = %2
  %15 = load i32, ptr %4, align 4, !tbaa !31
  %16 = load ptr, ptr %3, align 8, !tbaa !43
  %17 = getelementptr inbounds nuw %struct.pmix_object_t, ptr %16, i32 0, i32 2
  %18 = load i32, ptr %17, align 8, !tbaa !35
  %19 = add nsw i32 %18, %15
  store i32 %19, ptr %17, align 8, !tbaa !35
  store i32 %19, ptr %5, align 4, !tbaa !31
  %20 = load ptr, ptr %3, align 8, !tbaa !43
  %21 = getelementptr inbounds nuw %struct.pmix_object_t, ptr %20, i32 0, i32 0
  %22 = call i32 @pthread_mutex_unlock(ptr noundef %21) #12
  %23 = load i32, ptr %5, align 4, !tbaa !31
  call void @llvm.lifetime.end.p0(i64 4, ptr %5) #12
  ret i32 %23
}

; Function Attrs: nounwind uwtable
define i32 @pmix_progress_thread_start(ptr noundef %0) #0 {
  %2 = alloca i32, align 4
  %3 = alloca ptr, align 8
  %4 = alloca ptr, align 8
  %5 = alloca i32, align 4
  %6 = alloca i32, align 4
  %7 = alloca ptr, align 8
  store ptr %0, ptr %3, align 8, !tbaa !27
  call void @llvm.lifetime.start.p0(i64 8, ptr %4) #12
  call void @llvm.lifetime.start.p0(i64 4, ptr %5) #12
  %8 = load i8, ptr @inited, align 1, !tbaa !28, !range !29, !noundef !30
  %9 = trunc i8 %8 to i1
  br i1 %9, label %11, label %10

10:                                               ; preds = %1
  store i32 -46, ptr %2, align 4
  store i32 1, ptr %6, align 4
  br label %87

11:                                               ; preds = %1
  %12 = load ptr, ptr %3, align 8, !tbaa !27
  %13 = icmp eq ptr null, %12
  br i1 %13, label %19, label %14

14:                                               ; preds = %11
  %15 = load ptr, ptr %3, align 8, !tbaa !27
  %16 = load ptr, ptr @shared_thread_name, align 8, !tbaa !27
  %17 = call i32 @strcmp(ptr noundef %15, ptr noundef %16) #13
  %18 = icmp eq i32 0, %17
  br i1 %18, label %19, label %25

19:                                               ; preds = %14, %11
  %20 = load i8, ptr getelementptr inbounds nuw (%struct.pmix_globals_t, ptr @pmix_globals, i32 0, i32 35), align 1, !tbaa !70, !range !29, !noundef !30
  %21 = trunc i8 %20 to i1
  br i1 %21, label %22, label %23

22:                                               ; preds = %19
  store i32 0, ptr %2, align 4
  store i32 1, ptr %6, align 4
  br label %87

23:                                               ; preds = %19
  %24 = load ptr, ptr @shared_thread_name, align 8, !tbaa !27
  store ptr %24, ptr %3, align 8, !tbaa !27
  br label %25

25:                                               ; preds = %23, %14
  %26 = load ptr, ptr getelementptr inbounds nuw (%struct.pmix_list_item_t, ptr getelementptr inbounds nuw (%struct.pmix_list_t, ptr @tracking, i32 0, i32 1), i32 0, i32 1), align 8, !tbaa !36
  store ptr %26, ptr %4, align 8, !tbaa !3
  br label %27

27:                                               ; preds = %82, %25
  %28 = load ptr, ptr %4, align 8, !tbaa !3
  %29 = icmp ne ptr %28, getelementptr inbounds nuw (%struct.pmix_list_t, ptr @tracking, i32 0, i32 1)
  br i1 %29, label %30, label %86

30:                                               ; preds = %27
  %31 = load ptr, ptr %3, align 8, !tbaa !27
  %32 = load ptr, ptr %4, align 8, !tbaa !3
  %33 = getelementptr inbounds nuw %struct.pmix_progress_tracker_t, ptr %32, i32 0, i32 2
  %34 = load ptr, ptr %33, align 8, !tbaa !38
  %35 = call i32 @strcmp(ptr noundef %31, ptr noundef %34) #13
  %36 = icmp eq i32 0, %35
  br i1 %36, label %37, label %81

37:                                               ; preds = %30
  %38 = load ptr, ptr %4, align 8, !tbaa !3
  %39 = getelementptr inbounds nuw %struct.pmix_progress_tracker_t, ptr %38, i32 0, i32 4
  %40 = load volatile i8, ptr %39, align 8, !tbaa !84, !range !29, !noundef !30
  %41 = trunc i8 %40 to i1
  br i1 %41, label %42, label %43

42:                                               ; preds = %37
  store i32 0, ptr %2, align 4
  store i32 1, ptr %6, align 4
  br label %87

43:                                               ; preds = %37
  %44 = load ptr, ptr %4, align 8, !tbaa !3
  %45 = call i32 @start_progress_engine(ptr noundef %44)
  store i32 %45, ptr %5, align 4, !tbaa !31
  %46 = icmp ne i32 0, %45
  br i1 %46, label %47, label %79

47:                                               ; preds = %43
  br label %48

48:                                               ; preds = %47
  %49 = load i32, ptr %5, align 4, !tbaa !31
  %50 = icmp ne i32 -2, %49
  br i1 %50, label %51, label %54

51:                                               ; preds = %48
  %52 = load i32, ptr %5, align 4, !tbaa !31
  %53 = call ptr @PMIx_Error_string(i32 noundef %52)
  call void (i32, ptr, ...) @pmix_output(i32 noundef 0, ptr noundef @.str, ptr noundef %53, ptr noundef @.str.1, i32 noundef 271)
  br label %54

54:                                               ; preds = %51, %48
  br label %55

55:                                               ; preds = %54
  br label %56

56:                                               ; preds = %55
  br label %57

57:                                               ; preds = %56
  call void @llvm.lifetime.start.p0(i64 8, ptr %7) #12
  %58 = load ptr, ptr %4, align 8, !tbaa !3
  store ptr %58, ptr %7, align 8, !tbaa !43
  %59 = load ptr, ptr %7, align 8, !tbaa !43
  %60 = call i32 @pmix_obj_update(ptr noundef %59, i32 noundef -1)
  %61 = icmp eq i32 0, %60
  br i1 %61, label %62, label %76

62:                                               ; preds = %57
  %63 = load ptr, ptr %7, align 8, !tbaa !43
  call void @pmix_obj_run_destructors(ptr noundef %63)
  %64 = load ptr, ptr %7, align 8, !tbaa !43
  %65 = getelementptr inbounds nuw %struct.pmix_object_t, ptr %64, i32 0, i32 3
  %66 = getelementptr inbounds nuw %struct.pmix_tma, ptr %65, i32 0, i32 5
  %67 = load ptr, ptr %66, align 8, !tbaa !45
  %68 = icmp ne ptr null, %67
  br i1 %68, label %69, label %73

69:                                               ; preds = %62
  %70 = load ptr, ptr %7, align 8, !tbaa !43
  %71 = getelementptr inbounds nuw %struct.pmix_object_t, ptr %70, i32 0, i32 3
  %72 = load ptr, ptr %4, align 8, !tbaa !3
  call void @pmix_tma_free(ptr noundef %71, ptr noundef %72)
  br label %75

73:                                               ; preds = %62
  %74 = load ptr, ptr %4, align 8, !tbaa !3
  call void @free(ptr noundef %74) #12
  br label %75

75:                                               ; preds = %73, %69
  store ptr null, ptr %4, align 8, !tbaa !3
  br label %76

76:                                               ; preds = %75, %57
  call void @llvm.lifetime.end.p0(i64 8, ptr %7) #12
  br label %77

77:                                               ; preds = %76
  br label %78

78:                                               ; preds = %77
  br label %79

79:                                               ; preds = %78, %43
  %80 = load i32, ptr %5, align 4, !tbaa !31
  store i32 %80, ptr %2, align 4
  store i32 1, ptr %6, align 4
  br label %87

81:                                               ; preds = %30
  br label %82

82:                                               ; preds = %81
  %83 = load ptr, ptr %4, align 8, !tbaa !3
  %84 = getelementptr inbounds nuw %struct.pmix_list_item_t, ptr %83, i32 0, i32 1
  %85 = load ptr, ptr %84, align 8, !tbaa !40
  store ptr %85, ptr %4, align 8, !tbaa !3
  br label %27, !llvm.loop !85

86:                                               ; preds = %27
  store i32 -46, ptr %2, align 4
  store i32 1, ptr %6, align 4
  br label %87

87:                                               ; preds = %86, %79, %42, %22, %10
  call void @llvm.lifetime.end.p0(i64 4, ptr %5) #12
  call void @llvm.lifetime.end.p0(i64 8, ptr %4) #12
  %88 = load i32, ptr %2, align 4
  ret i32 %88
}