; Function Attrs: nounwind uwtable
define noundef i32 @pmix_progress_thread_start(ptr noundef readonly captures(address_is_null) %0) local_unnamed_addr #0 {
  %.b22 = load i1, ptr @inited, align 1
  br i1 %.b22, label %2, label %.loopexit

2:                                                ; preds = %1
  %3 = icmp eq ptr %0, null
  br i1 %3, label %7, label %4

4:                                                ; preds = %2
  %5 = tail call i32 @strcmp(ptr noundef nonnull dereferenceable(1) %0, ptr noundef nonnull dereferenceable(32) @.str.2) #15
  %6 = icmp eq i32 %5, 0
  br i1 %6, label %7, label %10

7:                                                ; preds = %4, %2
  %8 = load i8, ptr getelementptr inbounds nuw (i8, ptr @pmix_globals, i64 2889), align 1, !tbaa !47, !range !61, !noundef !62
  %9 = trunc nuw i8 %8 to i1
  br i1 %9, label %.loopexit, label %10

10:                                               ; preds = %7, %4
  %.018 = phi ptr [ %0, %4 ], [ @.str.2, %7 ]
  %.01928 = load ptr, ptr getelementptr inbounds nuw (i8, ptr @tracking, i64 240), align 8, !tbaa !35
  %.not29 = icmp eq ptr %.01928, getelementptr inbounds nuw (i8, ptr @tracking, i64 120)
  br i1 %.not29, label %.loopexit, label %.lr.ph

.lr.ph:                                           ; preds = %10, %47
  %.01930 = phi ptr [ %.019, %47 ], [ %.01928, %10 ]
  %11 = getelementptr inbounds nuw i8, ptr %.01930, i64 152
  %12 = load ptr, ptr %11, align 8, !tbaa !36
  %13 = tail call i32 @strcmp(ptr noundef nonnull dereferenceable(1) %.018, ptr noundef nonnull dereferenceable(1) %12) #15
  %14 = icmp eq i32 %13, 0
  br i1 %14, label %15, label %47

15:                                               ; preds = %.lr.ph
  %16 = getelementptr inbounds nuw i8, ptr %.01930, i64 168
  %17 = load volatile i8, ptr %16, align 8, !tbaa !63, !range !61, !noundef !62
  %18 = trunc nuw i8 %17 to i1
  br i1 %18, label %.loopexit, label %19

19:                                               ; preds = %15
  %20 = tail call fastcc i32 @start_progress_engine(ptr noundef %.01930)
  switch i32 %20, label %21 [
    i32 0, label %.loopexit
    i32 -2, label %23
  ]

21:                                               ; preds = %19
  %22 = tail call ptr @PMIx_Error_string(i32 noundef %20) #14
  tail call void (i32, ptr, ...) @pmix_output(i32 noundef 0, ptr noundef nonnull @.str, ptr noundef %22, ptr noundef nonnull @.str.1, i32 noundef 271) #14
  br label %23

23:                                               ; preds = %19, %21
  %24 = tail call i32 @pthread_mutex_lock(ptr noundef %.01930) #14
  %25 = icmp eq i32 %24, 35
  br i1 %25, label %26, label %pmix_obj_update.exit

26:                                               ; preds = %23
  %27 = tail call ptr @__errno_location() #17
  store i32 35, ptr %27, align 4, !tbaa !27
  tail call void @perror(ptr noundef nonnull @.str.4) #18
  tail call void @abort() #19
  unreachable

pmix_obj_update.exit:                             ; preds = %23
  %28 = getelementptr inbounds nuw i8, ptr %.01930, i64 48
  %29 = load i32, ptr %28, align 8, !tbaa !31
  %30 = add nsw i32 %29, -1
  store i32 %30, ptr %28, align 8, !tbaa !31
  %31 = tail call i32 @pthread_mutex_unlock(ptr noundef %.01930) #14
  %32 = icmp eq i32 %30, 0
  br i1 %32, label %33, label %.loopexit

33:                                               ; preds = %pmix_obj_update.exit
  %34 = getelementptr inbounds nuw i8, ptr %.01930, i64 40
  %35 = load ptr, ptr %34, align 8, !tbaa !30
  %36 = getelementptr inbounds nuw i8, ptr %35, i64 48
  %37 = load ptr, ptr %36, align 8, !tbaa !40
  %38 = load ptr, ptr %37, align 8, !tbaa !3
  %.not6.i = icmp eq ptr %38, null
  br i1 %.not6.i, label %pmix_obj_run_destructors.exit, label %.lr.ph.i

.lr.ph.i:                                         ; preds = %33, %.lr.ph.i
  %39 = phi ptr [ %41, %.lr.ph.i ], [ %38, %33 ]
  %.07.i = phi ptr [ %40, %.lr.ph.i ], [ %37, %33 ]
  tail call void %39(ptr noundef %.01930) #14
  %40 = getelementptr inbounds nuw i8, ptr %.07.i, i64 8
  %41 = load ptr, ptr %40, align 8, !tbaa !3
  %.not.i = icmp eq ptr %41, null
  br i1 %.not.i, label %pmix_obj_run_destructors.exit, label %.lr.ph.i, !llvm.loop !41

pmix_obj_run_destructors.exit:                    ; preds = %.lr.ph.i, %33
  %42 = getelementptr inbounds nuw i8, ptr %.01930, i64 96
  %43 = load ptr, ptr %42, align 8, !tbaa !42
  %.not25 = icmp eq ptr %43, null
  br i1 %.not25, label %46, label %44

44:                                               ; preds = %pmix_obj_run_destructors.exit
  %45 = getelementptr inbounds nuw i8, ptr %.01930, i64 56
  tail call void %43(ptr noundef nonnull %45, ptr noundef nonnull %.01930) #14
  br label %.loopexit

46:                                               ; preds = %pmix_obj_run_destructors.exit
  tail call void @free(ptr noundef nonnull %.01930) #14
  br label %.loopexit

47:                                               ; preds = %.lr.ph
  %48 = getelementptr inbounds nuw i8, ptr %.01930, i64 120
  %.019 = load ptr, ptr %48, align 8, !tbaa !35
  %.not = icmp eq ptr %.019, getelementptr inbounds nuw (i8, ptr @tracking, i64 120)
  br i1 %.not, label %.loopexit, label %.lr.ph, !llvm.loop !64

.loopexit:                                        ; preds = %47, %10, %19, %44, %46, %pmix_obj_update.exit, %15, %7, %1
  %.0 = phi i32 [ -46, %1 ], [ 0, %7 ], [ 0, %15 ], [ %20, %pmix_obj_update.exit ], [ %20, %46 ], [ %20, %44 ], [ %20, %19 ], [ -46, %10 ], [ -46, %47 ]
  ret i32 %.0
}